target datalayout = "e-m:e-p270:32:32-p271:32:32-p272:64:64-i64:64-i128:128-f80:128-n8:16:32:64-S128"
target triple = "x86_64-pc-linux-gnu"

%"class.Ipopt::CGPenaltyLSAcceptor" = type { %"class.Ipopt::BacktrackingLSAcceptor.base", double, double, double, double, double, double, double, double, double, double, double, double, double, double, double, double, double, i8, double, double, i32, double, i32, i32, double, i32, double, %"class.Ipopt::SmartPtr.3", double, double, double, double, double, double, double, %"class.Ipopt::SmartPtr.3", i8, %"class.Ipopt::PiecewisePenalty", i8, i32, %"class.Ipopt::SmartPtr.4" }
%"class.Ipopt::BacktrackingLSAcceptor.base" = type { %"class.Ipopt::AlgorithmStrategyObject.base" }
%"class.Ipopt::AlgorithmStrategyObject.base" = type <{ %"class.Ipopt::ReferencedObject.base", [4 x i8], %"class.Ipopt::SmartPtr", %"class.Ipopt::SmartPtr.0", %"class.Ipopt::SmartPtr.1", %"class.Ipopt::SmartPtr.2", i8 }>
%"class.Ipopt::ReferencedObject.base" = type <{ ptr, i32 }>
%"class.Ipopt::SmartPtr" = type { ptr }
%"class.Ipopt::SmartPtr.0" = type { ptr }
%"class.Ipopt::SmartPtr.1" = type { ptr }
%"class.Ipopt::SmartPtr.2" = type { ptr }
%"class.Ipopt::SmartPtr.3" = type { ptr }
%"class.Ipopt::PiecewisePenalty" = type { i32, double, i32, %"class.std::vector" }
%"class.std::vector" = type { %"struct.std::_Vector_base" }
%"struct.std::_Vector_base" = type { %"struct.std::_Vector_base<Ipopt::PiecewisePenEntry, std::allocator<Ipopt::PiecewisePenEntry>>::_Vector_impl" }
%"struct.std::_Vector_base<Ipopt::PiecewisePenEntry, std::allocator<Ipopt::PiecewisePenEntry>>::_Vector_impl" = type { %"struct.std::_Vector_base<Ipopt::PiecewisePenEntry, std::allocator<Ipopt::PiecewisePenEntry>>::_Vector_impl_data" }
%"struct.std::_Vector_base<Ipopt::PiecewisePenEntry, std::allocator<Ipopt::PiecewisePenEntry>>::_Vector_impl_data" = type { ptr, ptr, ptr }
%"class.Ipopt::SmartPtr.4" = type { ptr }
%"class.Ipopt::AlgorithmStrategyObject" = type <{ %"class.Ipopt::ReferencedObject.base", [4 x i8], %"class.Ipopt::SmartPtr", %"class.Ipopt::SmartPtr.0", %"class.Ipopt::SmartPtr.1", %"class.Ipopt::SmartPtr.2", i8, [7 x i8] }>

; Function Attrs: inlinehint mustprogress nounwind uwtable
define linkonce_odr noundef nonnull align 8 dereferenceable(8) ptr @_ZSt3maxIdERKT_S2_S2_(ptr noundef nonnull align 8 dereferenceable(8) %0, ptr noundef nonnull align 8 dereferenceable(8) %1) #10 comdat {
  %3 = alloca ptr, align 8
  %4 = alloca ptr, align 8
  %5 = alloca ptr, align 8
  store ptr %0, ptr %4, align 8, !tbaa !139
  store ptr %1, ptr %5, align 8, !tbaa !139
  %6 = load ptr, ptr %4, align 8, !tbaa !139
  %7 = load double, ptr %6, align 8, !tbaa !98
  %8 = load ptr, ptr %5, align 8, !tbaa !139
  %9 = load double, ptr %8, align 8, !tbaa !98
  %10 = fcmp olt double %7, %9
  br i1 %10, label %11, label %13

11:                                               ; preds = %2
  %12 = load ptr, ptr %5, align 8, !tbaa !139
  store ptr %12, ptr %3, align 8
  br label %15

13:                                               ; preds = %2
  %14 = load ptr, ptr %4, align 8, !tbaa !139
  store ptr %14, ptr %3, align 8
  br label %15

15:                                               ; preds = %13, %11
  %16 = load ptr, ptr %3, align 8
  ret ptr %16
}

; Function Attrs: mustprogress nounwind uwtable
define linkonce_odr noundef nonnull align 8 dereferenceable(2185) ptr @_ZNK5Ipopt8SmartPtrINS_25IpoptCalculatedQuantitiesEEdeEv(ptr noundef nonnull align 8 dereferenceable(8) %0) #5 comdat align 2 {
  %2 = alloca ptr, align 8
  store ptr %0, ptr %2, align 8, !tbaa !200
  %3 = load ptr, ptr %2, align 8
  %4 = getelementptr inbounds nuw %"class.Ipopt::SmartPtr.2", ptr %3, i32 0, i32 0
  %5 = load ptr, ptr %4, align 8, !tbaa !202
  ret ptr %5
}

; Function Attrs: inlinehint mustprogress uwtable
define linkonce_odr noundef double @_ZN5Ipopt3MaxIdEET_S1_S1_(double noundef %0, double noundef %1) #8 comdat {
  %3 = alloca double, align 8
  %4 = alloca double, align 8
  store double %0, ptr %3, align 8, !tbaa !98
  store double %1, ptr %4, align 8, !tbaa !98
  %5 = call noundef nonnull align 8 dereferenceable(8) ptr @_ZSt3maxIdERKT_S2_S2_(ptr noundef nonnull align 8 dereferenceable(8) %3, ptr noundef nonnull align 8 dereferenceable(8) %4)
  %6 = load double, ptr %5, align 8, !tbaa !98
  ret double %6
}

; Function Attrs: mustprogress uwtable
define linkonce_odr noundef nonnull align 8 dereferenceable(2185) ptr @_ZNK5Ipopt23AlgorithmStrategyObject4IpCqEv(ptr noundef nonnull align 8 dereferenceable(49) %0) #4 comdat align 2 {
  %2 = alloca ptr, align 8
  store ptr %0, ptr %2, align 8, !tbaa !73
  %3 = load ptr, ptr %2, align 8
  %4 = getelementptr inbounds nuw %"class.Ipopt::AlgorithmStrategyObject", ptr %3, i32 0, i32 5
  %5 = call noundef nonnull align 8 dereferenceable(2185) ptr @_ZNK5Ipopt8SmartPtrINS_25IpoptCalculatedQuantitiesEEdeEv(ptr noundef nonnull align 8 dereferenceable(8) %4)
  ret ptr %5
}

; Function Attrs: mustprogress uwtable
define noundef zeroext i1 @_ZN5Ipopt19CGPenaltyLSAcceptor13CurrentIsBestEv(ptr noundef nonnull align 8 dereferenceable(408) %0) #4 align 2 {
  %2 = alloca ptr, align 8
  %3 = alloca double, align 8
  %4 = alloca double, align 8
  %5 = alloca double, align 8
  %6 = alloca double, align 8
  %7 = alloca i8, align 1
  store ptr %0, ptr %2, align 8, !tbaa !3
  %8 = load ptr, ptr %2, align 8
  call void @llvm.lifetime.start.p0(i64 8, ptr %3) #3
  %9 = call noundef nonnull align 8 dereferenceable(2185) ptr @_ZNK5Ipopt23AlgorithmStrategyObject4IpCqEv(ptr noundef nonnull align 8 dereferenceable(49) %8)
  %10 = load ptr, ptr %9, align 8, !tbaa !10
  %11 = getelementptr inbounds ptr, ptr %10, i64 19
  %12 = load ptr, ptr %11, align 8
  %13 = call noundef double %12(ptr noundef nonnull align 8 dereferenceable(2185) %9, i32 noundef 2)
  store double %13, ptr %3, align 8, !tbaa !98
  call void @llvm.lifetime.start.p0(i64 8, ptr %4) #3
  %14 = call noundef nonnull align 8 dereferenceable(2185) ptr @_ZNK5Ipopt23AlgorithmStrategyObject4IpCqEv(ptr noundef nonnull align 8 dereferenceable(49) %8)
  %15 = load ptr, ptr %14, align 8, !tbaa !10
  %16 = getelementptr inbounds ptr, ptr %15, i64 11
  %17 = load ptr, ptr %16, align 8
  %18 = call noundef double %17(ptr noundef nonnull align 8 dereferenceable(2185) %14, i32 noundef 2)
  store double %18, ptr %4, align 8, !tbaa !98
  call void @llvm.lifetime.start.p0(i64 8, ptr %5) #3
  %19 = call noundef nonnull align 8 dereferenceable(2185) ptr @_ZNK5Ipopt23AlgorithmStrategyObject4IpCqEv(ptr noundef nonnull align 8 dereferenceable(49) %8)
  %20 = load ptr, ptr %19, align 8, !tbaa !10
  %21 = getelementptr inbounds ptr, ptr %20, i64 22
  %22 = load ptr, ptr %21, align 8
  %23 = call noundef double %22(ptr noundef nonnull align 8 dereferenceable(2185) %19, double noundef 0.000000e+00, i32 noundef 2)
  store double %23, ptr %5, align 8, !tbaa !98
  call void @llvm.lifetime.start.p0(i64 8, ptr %6) #3
  %24 = load double, ptr %3, align 8, !tbaa !98
  %25 = load double, ptr %4, align 8, !tbaa !98
  %26 = load double, ptr %5, align 8, !tbaa !98
  %27 = call noundef double @_ZN5Ipopt3MaxIdEET_S1_S1_(double noundef %25, double noundef %26)
  %28 = call noundef double @_ZN5Ipopt3MaxIdEET_S1_S1_(double noundef %24, double noundef %27)
  store double %28, ptr %6, align 8, !tbaa !98
  call void @llvm.lifetime.start.p0(i64 1, ptr %7) #3
  store i8 0, ptr %7, align 1, !tbaa !94
  %29 = load double, ptr %6, align 8, !tbaa !98
  %30 = getelementptr inbounds nuw %"class.Ipopt::CGPenaltyLSAcceptor", ptr %8, i32 0, i32 27
  %31 = load double, ptr %30, align 8, !tbaa !67
  %32 = fcmp olt double %29, %31
  br i1 %32, label %37, label %33

33:                                               ; preds = %1
  %34 = getelementptr inbounds nuw %"class.Ipopt::CGPenaltyLSAcceptor", ptr %8, i32 0, i32 27
  %35 = load double, ptr %34, align 8, !tbaa !67
  %36 = fcmp olt double %35, 0.000000e+00
  br i1 %36, label %37, label %40

37:                                               ; preds = %33, %1
  %38 = load double, ptr %6, align 8, !tbaa !98
  %39 = getelementptr inbounds nuw %"class.Ipopt::CGPenaltyLSAcceptor", ptr %8, i32 0, i32 27
  store double %38, ptr %39, align 8, !tbaa !67
  store i8 1, ptr %7, align 1, !tbaa !94
  br label %40

40:                                               ; preds = %37, %33
  %41 = load i8, ptr %7, align 1, !tbaa !94, !range !96, !noundef !97
  %42 = trunc i8 %41 to i1
  call void @llvm.lifetime.end.p0(i64 1, ptr %7) #3
  call void @llvm.lifetime.end.p0(i64 8, ptr %6) #3
  call void @llvm.lifetime.end.p0(i64 8, ptr %5) #3
  call void @llvm.lifetime.end.p0(i64 8, ptr %4) #3
  call void @llvm.lifetime.end.p0(i64 8, ptr %3) #3
  ret i1 %42
}