; Function Attrs: mustprogress uwtable
define noundef zeroext i1 @_ZN5Ipopt19CGPenaltyLSAcceptor13CurrentIsBestEv(ptr noundef nonnull align 8 captures(none) dereferenceable(408) %0) local_unnamed_addr #3 align 2 {
  %2 = getelementptr inbounds nuw i8, ptr %0, i64 40
  %3 = load ptr, ptr %2, align 8, !tbaa !21
  %4 = load ptr, ptr %3, align 8, !tbaa !8
  %5 = getelementptr inbounds nuw i8, ptr %4, i64 152
  %6 = load ptr, ptr %5, align 8
  %7 = tail call noundef double %6(ptr noundef nonnull align 8 dereferenceable(2185) %3, i32 noundef 2)
  %8 = load ptr, ptr %2, align 8, !tbaa !21
  %9 = load ptr, ptr %8, align 8, !tbaa !8
  %10 = getelementptr inbounds nuw i8, ptr %9, i64 88
  %11 = load ptr, ptr %10, align 8
  %12 = tail call noundef double %11(ptr noundef nonnull align 8 dereferenceable(2185) %8, i32 noundef 2)
  %13 = load ptr, ptr %2, align 8, !tbaa !21
  %14 = load ptr, ptr %13, align 8, !tbaa !8
  %15 = getelementptr inbounds nuw i8, ptr %14, i64 176
  %16 = load ptr, ptr %15, align 8
  %17 = tail call noundef double %16(ptr noundef nonnull align 8 dereferenceable(2185) %13, double noundef 0.000000e+00, i32 noundef 2)
  %18 = fcmp olt double %12, %17
  %.sroa.speculated.i = select i1 %18, double %17, double %12
  %19 = fcmp olt double %7, %.sroa.speculated.i
  %.sroa.speculated.i7 = select i1 %19, double %.sroa.speculated.i, double %7
  %20 = getelementptr inbounds nuw i8, ptr %0, i64 256
  %21 = load double, ptr %20, align 8, !tbaa !75
  %22 = fcmp olt double %.sroa.speculated.i7, %21
  %23 = fcmp olt double %21, 0.000000e+00
  %or.cond = or i1 %23, %22
  br i1 %or.cond, label %24, label %25

24:                                               ; preds = %1
  store double %.sroa.speculated.i7, ptr %20, align 8, !tbaa !75
  br label %25

25:                                               ; preds = %1, %24
  ret i1 %or.cond
}